target datalayout = "e-m:e-p270:32:32-p271:32:32-p272:64:64-i64:64-i128:128-f80:128-n8:16:32:64-S128"
target triple = "x86_64-pc-linux-gnu"

%struct.regex_t = type { i32, i64, ptr, ptr }

@skipauth = dso_local global i32 0, align 4
@authreg = dso_local global %struct.regex_t zeroinitializer, align 8

; Function Attrs: nounwind uwtable
define dso_local i32 @smtpauthed(ptr noundef %0) #0 {
  %2 = alloca i32, align 4
  %3 = alloca ptr, align 8
  store ptr %0, ptr %3, align 8
  %4 = load i32, ptr @skipauth, align 4
  %5 = icmp ne i32 %4, 0
  br i1 %5, label %6, label %11

6:                                                ; preds = %1
  %7 = load ptr, ptr %3, align 8
  %8 = call i32 @cli_regexec(ptr noundef @authreg, ptr noundef %7, i64 noundef 0, ptr noundef null, i32 noundef 0)
  %9 = icmp ne i32 %8, 0
  br i1 %9, label %11, label %10

10:                                               ; preds = %6
  store i32 1, ptr %2, align 4
  br label %12

11:                                               ; preds = %6, %1
  store i32 0, ptr %2, align 4
  br label %12

12:                                               ; preds = %11, %10
  %13 = load i32, ptr %2, align 4
  ret i32 %13
}