; Function Attrs: nounwind uwtable
define dso_local noundef i32 @smtpauthed(ptr noundef %0) local_unnamed_addr #0 {
  %2 = load i32, ptr @skipauth, align 4
  %.not = icmp eq i32 %2, 0
  br i1 %.not, label %5, label %3

3:                                                ; preds = %1
  %4 = tail call i32 @cli_regexec(ptr noundef nonnull @authreg, ptr noundef %0, i64 noundef 0, ptr noundef null, i32 noundef 0) #8
  %.not1 = icmp eq i32 %4, 0
  br i1 %.not1, label %6, label %5

5:                                                ; preds = %3, %1
  br label %6

6:                                                ; preds = %3, %5
  %.0 = phi i32 [ 0, %5 ], [ 1, %3 ]
  ret i32 %.0
}